       1                                		.PSECT A, REL
       2                                ;    ******************************
       3                                ;    *    Branch Instructions	  *
       4                                ;    ******************************
       5                                ; END OF THE PROGRAM SHOULD BE N = 17 & NT = 0
       6 000000 000000                  NT:       .WORD     0.             ;initialise NT, N, and CONST
       7 000002 000000                  N:        .WORD     0.             
       8                                
       9                                START:                             ;program starts executing here
      10 000004 000402                            BR		bne
      11 000006 005267  177766          		  INC		NT			   ;Not Taken
      12 000012 005267  177764          bne:	  INC		N
      13 000016 000244                  		  CLZ		
      14 000020 001002                  		  BNE		beq
      15 000022 005267  177752          		  INC		NT			   ;Not Taken
      16 000026 005267  177750          beq:	  INC		N
      17 000032 000264                  		  SEZ
      18 000034 001402                  		  BEQ		bpl
      19 000036 005267  177736          		  INC		NT			   ;Not Taken		  
      20 000042 005267  177734          bpl:	  INC		N
      21 000046 000250                  		  CLN
      22 000050 100002                  		  BPL		bmi		  
      23 000052 005267  177722          		  INC		NT			   ;Not Taken
      24 000056 005267  177720          bmi:	  INC		N
      25 000062 000270                  		  SEN
      26 000064 100402                  		  BMI		bvc
      27 000066 005267  177706          		  INC		NT			   ;Not Taken
      28 000072 005267  177704          bvc:	  INC		N
      29 000076 000242                  		  CLV
      30 000100 102002                  		  BVC		bvs
      31 000102 005267  177672          		  INC		NT			   ;Not Taken
      32 000106 005267  177670          bvs:	  INC		N
      33 000112 000262                  		  SEV
      34 000114 102402                  		  BVS		bhis
      35 000116 005267  177656          		  INC		NT			   ;Not Taken		  
      36 000122 005267  177654          bhis:	  INC		N
      37 000126 000241                  		  CLC
      38 000130 103002                  		  BHIS		bcc		  
      39 000132 005267  177642          		  INC		NT			   ;Not Taken
      40 000136 005267  177640          bcc:	  INC		N
      41 000142 000241                  		  CLC
      42 000144 103002                  		  BCC		blo	  
      43 000146 005267  177626          		  INC		NT			   ;Not Taken
      44 000152 005267  177624          blo:	  INC		N
      45 000156 000261                  		  SEC
      46 000160 103402                  		  BLO		bcs	  
      47 000162 005267  177612          		  INC		NT			   ;Not Taken
      48 000166 005267  177610          bcs:	  INC		N
      49 000172 000261                  		  SEC
      50 000174 103402                  		  BCS		bge
      51 000176 005267  177576          		  INC		NT			   ;Not Taken			  
      52 000202 005267  177574          bge:	  INC		N
      53 000206 000262                  		  SEV
      54 000210 000270                  		  SEN
      55 000212 002002                  		  BGE		blt
      56 000214 005267  177560          		  INC		NT			   ;Not Taken	
      57 000220 005267  177556          blt:	  INC		N
      58 000224 000262                  		  SEV
      59 000226 000250                  		  CLN
      60 000230 002402                  		  BLT		bgt
      61 000232 005267  177542          		  INC		NT			   ;Not Taken	
      62 000236 005267  177540          bgt:	  INC		N
      63 000242 000262                  		  SEV
      64 000244 000270                  		  SEN
      65 000246 000244                  		  CLZ
      66 000250 003002                  		  BGT		ble
      67 000252 005267  177522          		  INC		NT			   ;Not Taken			  
      68 000256 005267  177520          ble:	  INC		N
      69 000262 000262                  		  SEV
      70 000264 000250                  		  CLN
      71 000266 000264                  		  SEZ
      72 000270 003402                  		  BLE		bhi
      73 000272 005267  177502          		  INC		NT			   ;Not Taken
      74 000276 005267  177500          bhi:	  INC		N
      75 000302 000241                  		  CLC
      76 000304 000244                  		  CLZ
      77 000306 101002                  		  BHI		blos
      78 000310 005267  177464          		  INC		NT			   ;Not Taken	
      79 000314 005267  177462          blos:	  INC		N
      80 000320 000261                  		  SEC
      81 000322 000264                  		  SEZ
      82 000324 101402                  		  BLOS		end
      83 000326 005267  177446          		  INC		NT			   ;Not Taken			  
      84 000332 005267  177444          end:	  INC		N
      84 000336 000000                  		  HALT		  
